; ModuleID = 'source-C-CXX/36/596.cpp'
source_filename = "source-C-CXX/36/596.cpp"
target datalayout = "e-m:e-p270:32:32-p271:32:32-p272:64:64-i64:64-f80:128-n8:16:32:64-S128"
target triple = "x86_64-pc-linux-gnu"

%"class.std::ios_base::Init" = type { i8 }
%"class.std::basic_istream" = type { i32 (...)**, i64, %"class.std::basic_ios" }
%"class.std::basic_ios" = type { %"class.std::ios_base", %"class.std::basic_ostream"*, i8, i8, %"class.std::basic_streambuf"*, %"class.std::ctype"*, %"class.std::num_put"*, %"class.std::num_get"* }
%"class.std::ios_base" = type { i32 (...)**, i64, i64, i32, i32, i32, %"struct.std::ios_base::_Callback_list"*, %"struct.std::ios_base::_Words", [8 x %"struct.std::ios_base::_Words"], i32, %"struct.std::ios_base::_Words"*, %"class.std::locale" }
%"struct.std::ios_base::_Callback_list" = type { %"struct.std::ios_base::_Callback_list"*, void (i32, %"class.std::ios_base"*, i32)*, i32, i32 }
%"struct.std::ios_base::_Words" = type { i8*, i64 }
%"class.std::locale" = type { %"class.std::locale::_Impl"* }
%"class.std::locale::_Impl" = type { i32, %"class.std::locale::facet"**, i64, %"class.std::locale::facet"**, i8** }
%"class.std::locale::facet" = type <{ i32 (...)**, i32, [4 x i8] }>
%"class.std::basic_ostream" = type { i32 (...)**, %"class.std::basic_ios" }
%"class.std::basic_streambuf" = type { i32 (...)**, i8*, i8*, i8*, i8*, i8*, i8*, %"class.std::locale" }
%"class.std::ctype" = type <{ %"class.std::locale::facet.base", [4 x i8], %struct.__locale_struct*, i8, [7 x i8], i32*, i32*, i16*, i8, [256 x i8], [256 x i8], i8, [6 x i8] }>
%"class.std::locale::facet.base" = type <{ i32 (...)**, i32 }>
%struct.__locale_struct = type { [13 x %struct.__locale_data*], i16*, i32*, i32*, [13 x i8*] }
%struct.__locale_data = type opaque
%"class.std::num_put" = type { %"class.std::locale::facet.base", [4 x i8] }
%"class.std::num_get" = type { %"class.std::locale::facet.base", [4 x i8] }

@_ZStL8__ioinit = internal global %"class.std::ios_base::Init" zeroinitializer, align 1
@__dso_handle = external hidden global i8
@_ZSt3cin = external global %"class.std::basic_istream", align 8
@_ZSt4cout = external global %"class.std::basic_ostream", align 8
@.str = private unnamed_addr constant [4 x i8] c"no\0A\00", align 1
@.str.1 = private unnamed_addr constant [2 x i8] c"\0A\00", align 1
@llvm.global_ctors = appending global [1 x { i32, void ()*, i8* }] [{ i32, void ()*, i8* } { i32 65535, void ()* @_GLOBAL__sub_I_596.cpp, i8* null }]

declare void @_ZNSt8ios_base4InitC1Ev(%"class.std::ios_base::Init"* nonnull align 1 dereferenceable(1)) unnamed_addr #0

; Function Attrs: nounwind
declare void @_ZNSt8ios_base4InitD1Ev(%"class.std::ios_base::Init"* nonnull align 1 dereferenceable(1)) unnamed_addr #1

; Function Attrs: nofree nounwind
declare i32 @__cxa_atexit(void (i8*)*, i8*, i8*) local_unnamed_addr #2

; Function Attrs: mustprogress norecurse sspstrong uwtable
define dso_local i32 @main() local_unnamed_addr #3 {
  %1 = alloca i8, align 1
  %2 = alloca i32, align 4
  %3 = alloca [100 x i8], align 16
  %4 = alloca [10 x i8], align 1
  %5 = alloca [26 x i32], align 16
  %6 = bitcast [26 x i32]* %5 to i8*
  %7 = bitcast i32* %2 to i8*
  call void @llvm.lifetime.start.p0i8(i64 4, i8* nonnull %7) #7
  %8 = call nonnull align 8 dereferenceable(16) %"class.std::basic_istream"* @_ZNSirsERi(%"class.std::basic_istream"* nonnull align 8 dereferenceable(16) @_ZSt3cin, i32* nonnull align 4 dereferenceable(4) %2)
  %9 = getelementptr inbounds [100 x i8], [100 x i8]* %3, i64 0, i64 0
  call void @llvm.lifetime.start.p0i8(i64 100, i8* nonnull %9) #7
  %10 = getelementptr inbounds [10 x i8], [10 x i8]* %4, i64 0, i64 0
  call void @llvm.lifetime.start.p0i8(i64 10, i8* nonnull %10) #7
  %11 = load i32, i32* %2, align 4, !tbaa !5
  %12 = icmp sgt i32 %11, 0
  br i1 %12, label %14, label %13

13:                                               ; preds = %0
  call void @llvm.lifetime.start.p0i8(i64 104, i8* nonnull %6) #7
  br label %78

14:                                               ; preds = %0
  %15 = getelementptr inbounds [10 x i8], [10 x i8]* %4, i64 0, i64 0
  %16 = zext i32 %11 to i64
  call void @llvm.memset.p0i8.i64(i8* nonnull align 1 %15, i8 65, i64 %16, i1 false)
  call void @llvm.lifetime.start.p0i8(i64 104, i8* nonnull %6) #7
  br label %17

17:                                               ; preds = %14, %58
  %18 = phi i64 [ 0, %14 ], [ %59, %58 ]
  call void @llvm.memset.p0i8.i64(i8* noundef nonnull align 16 dereferenceable(104) %6, i8 0, i64 104, i1 false)
  call void @_ZSt17__istream_extractRSiPcl(%"class.std::basic_istream"* nonnull align 8 dereferenceable(16) @_ZSt3cin, i8* nonnull %9, i64 100)
  br label %21

19:                                               ; preds = %58
  %20 = icmp sgt i32 %60, 0
  br i1 %20, label %63, label %78

21:                                               ; preds = %79, %17
  %22 = phi i64 [ 0, %17 ], [ %85, %79 ]
  %23 = getelementptr inbounds [100 x i8], [100 x i8]* %3, i64 0, i64 %22
  %24 = load i8, i8* %23, align 2, !tbaa !9
  %25 = icmp eq i8 %24, 0
  br i1 %25, label %36, label %26

26:                                               ; preds = %21
  %27 = sext i8 %24 to i64
  %28 = add nsw i64 %27, -97
  %29 = getelementptr inbounds [26 x i32], [26 x i32]* %5, i64 0, i64 %28
  %30 = load i32, i32* %29, align 4, !tbaa !5
  %31 = add nsw i32 %30, 1
  store i32 %31, i32* %29, align 4, !tbaa !5
  %32 = or i64 %22, 1
  %33 = getelementptr inbounds [100 x i8], [100 x i8]* %3, i64 0, i64 %32
  %34 = load i8, i8* %33, align 1, !tbaa !9
  %35 = icmp eq i8 %34, 0
  br i1 %35, label %36, label %79

36:                                               ; preds = %79, %26, %21
  br label %46

37:                                               ; preds = %46
  %38 = or i64 %47, 1
  %39 = getelementptr inbounds [100 x i8], [100 x i8]* %3, i64 0, i64 %38
  %40 = load i8, i8* %39, align 1, !tbaa !9
  %41 = sext i8 %40 to i64
  %42 = add nsw i64 %41, -97
  %43 = getelementptr inbounds [26 x i32], [26 x i32]* %5, i64 0, i64 %42
  %44 = load i32, i32* %43, align 4, !tbaa !5
  %45 = icmp eq i32 %44, 1
  br i1 %45, label %55, label %87

46:                                               ; preds = %105, %36
  %47 = phi i64 [ 0, %36 ], [ %106, %105 ]
  %48 = getelementptr inbounds [100 x i8], [100 x i8]* %3, i64 0, i64 %47
  %49 = load i8, i8* %48, align 4, !tbaa !9
  %50 = sext i8 %49 to i64
  %51 = add nsw i64 %50, -97
  %52 = getelementptr inbounds [26 x i32], [26 x i32]* %5, i64 0, i64 %51
  %53 = load i32, i32* %52, align 4, !tbaa !5
  %54 = icmp eq i32 %53, 1
  br i1 %54, label %55, label %37

55:                                               ; preds = %96, %87, %37, %46
  %56 = phi i8 [ %49, %46 ], [ %40, %37 ], [ %90, %87 ], [ %99, %96 ]
  %57 = getelementptr inbounds [10 x i8], [10 x i8]* %4, i64 0, i64 %18
  store i8 %56, i8* %57, align 1, !tbaa !9
  br label %58

58:                                               ; preds = %105, %55
  %59 = add nuw nsw i64 %18, 1
  %60 = load i32, i32* %2, align 4, !tbaa !5
  %61 = sext i32 %60 to i64
  %62 = icmp slt i64 %59, %61
  br i1 %62, label %17, label %19, !llvm.loop !10

63:                                               ; preds = %19, %73
  %64 = phi i64 [ %74, %73 ], [ 0, %19 ]
  %65 = getelementptr inbounds [10 x i8], [10 x i8]* %4, i64 0, i64 %64
  %66 = load i8, i8* %65, align 1, !tbaa !9
  %67 = icmp eq i8 %66, 65
  br i1 %67, label %68, label %70

68:                                               ; preds = %63
  %69 = call nonnull align 8 dereferenceable(8) %"class.std::basic_ostream"* @_ZSt16__ostream_insertIcSt11char_traitsIcEERSt13basic_ostreamIT_T0_ES6_PKS3_l(%"class.std::basic_ostream"* nonnull align 8 dereferenceable(8) @_ZSt4cout, i8* nonnull getelementptr inbounds ([4 x i8], [4 x i8]* @.str, i64 0, i64 0), i64 3)
  br label %73

70:                                               ; preds = %63
  call void @llvm.lifetime.start.p0i8(i64 1, i8* nonnull %1)
  store i8 %66, i8* %1, align 1, !tbaa !9
  %71 = call nonnull align 8 dereferenceable(8) %"class.std::basic_ostream"* @_ZSt16__ostream_insertIcSt11char_traitsIcEERSt13basic_ostreamIT_T0_ES6_PKS3_l(%"class.std::basic_ostream"* nonnull align 8 dereferenceable(8) @_ZSt4cout, i8* nonnull %1, i64 1)
  call void @llvm.lifetime.end.p0i8(i64 1, i8* nonnull %1)
  %72 = call nonnull align 8 dereferenceable(8) %"class.std::basic_ostream"* @_ZSt16__ostream_insertIcSt11char_traitsIcEERSt13basic_ostreamIT_T0_ES6_PKS3_l(%"class.std::basic_ostream"* nonnull align 8 dereferenceable(8) %71, i8* nonnull getelementptr inbounds ([2 x i8], [2 x i8]* @.str.1, i64 0, i64 0), i64 1)
  br label %73

73:                                               ; preds = %68, %70
  %74 = add nuw nsw i64 %64, 1
  %75 = load i32, i32* %2, align 4, !tbaa !5
  %76 = sext i32 %75 to i64
  %77 = icmp slt i64 %74, %76
  br i1 %77, label %63, label %78, !llvm.loop !12

78:                                               ; preds = %73, %13, %19
  call void @llvm.lifetime.end.p0i8(i64 104, i8* nonnull %6) #7
  call void @llvm.lifetime.end.p0i8(i64 10, i8* nonnull %10) #7
  call void @llvm.lifetime.end.p0i8(i64 100, i8* nonnull %9) #7
  call void @llvm.lifetime.end.p0i8(i64 4, i8* nonnull %7) #7
  ret i32 0

79:                                               ; preds = %26
  %80 = sext i8 %34 to i64
  %81 = add nsw i64 %80, -97
  %82 = getelementptr inbounds [26 x i32], [26 x i32]* %5, i64 0, i64 %81
  %83 = load i32, i32* %82, align 4, !tbaa !5
  %84 = add nsw i32 %83, 1
  store i32 %84, i32* %82, align 4, !tbaa !5
  %85 = add nuw nsw i64 %22, 2
  %86 = icmp eq i64 %85, 100
  br i1 %86, label %36, label %21, !llvm.loop !13

87:                                               ; preds = %37
  %88 = or i64 %47, 2
  %89 = getelementptr inbounds [100 x i8], [100 x i8]* %3, i64 0, i64 %88
  %90 = load i8, i8* %89, align 2, !tbaa !9
  %91 = sext i8 %90 to i64
  %92 = add nsw i64 %91, -97
  %93 = getelementptr inbounds [26 x i32], [26 x i32]* %5, i64 0, i64 %92
  %94 = load i32, i32* %93, align 4, !tbaa !5
  %95 = icmp eq i32 %94, 1
  br i1 %95, label %55, label %96

96:                                               ; preds = %87
  %97 = or i64 %47, 3
  %98 = getelementptr inbounds [100 x i8], [100 x i8]* %3, i64 0, i64 %97
  %99 = load i8, i8* %98, align 1, !tbaa !9
  %100 = sext i8 %99 to i64
  %101 = add nsw i64 %100, -97
  %102 = getelementptr inbounds [26 x i32], [26 x i32]* %5, i64 0, i64 %101
  %103 = load i32, i32* %102, align 4, !tbaa !5
  %104 = icmp eq i32 %103, 1
  br i1 %104, label %55, label %105

105:                                              ; preds = %96
  %106 = add nuw nsw i64 %47, 4
  %107 = icmp eq i64 %106, 100
  br i1 %107, label %58, label %46, !llvm.loop !14
}

; Function Attrs: argmemonly mustprogress nofree nosync nounwind willreturn
declare void @llvm.lifetime.start.p0i8(i64 immarg, i8* nocapture) #4

declare nonnull align 8 dereferenceable(16) %"class.std::basic_istream"* @_ZNSirsERi(%"class.std::basic_istream"* nonnull align 8 dereferenceable(16), i32* nonnull align 4 dereferenceable(4)) local_unnamed_addr #0

; Function Attrs: argmemonly mustprogress nofree nosync nounwind willreturn
declare void @llvm.lifetime.end.p0i8(i64 immarg, i8* nocapture) #4

declare void @_ZSt17__istream_extractRSiPcl(%"class.std::basic_istream"* nonnull align 8 dereferenceable(16), i8*, i64) local_unnamed_addr #0

declare nonnull align 8 dereferenceable(8) %"class.std::basic_ostream"* @_ZSt16__ostream_insertIcSt11char_traitsIcEERSt13basic_ostreamIT_T0_ES6_PKS3_l(%"class.std::basic_ostream"* nonnull align 8 dereferenceable(8), i8*, i64) local_unnamed_addr #0

; Function Attrs: sspstrong uwtable
define internal void @_GLOBAL__sub_I_596.cpp() #5 section ".text.startup" {
  tail call void @_ZNSt8ios_base4InitC1Ev(%"class.std::ios_base::Init"* nonnull align 1 dereferenceable(1) @_ZStL8__ioinit)
  %1 = tail call i32 @__cxa_atexit(void (i8*)* bitcast (void (%"class.std::ios_base::Init"*)* @_ZNSt8ios_base4InitD1Ev to void (i8*)*), i8* getelementptr inbounds (%"class.std::ios_base::Init", %"class.std::ios_base::Init"* @_ZStL8__ioinit, i64 0, i32 0), i8* nonnull @__dso_handle) #7
  ret void
}

; Function Attrs: argmemonly nofree nounwind willreturn writeonly
declare void @llvm.memset.p0i8.i64(i8* nocapture writeonly, i8, i64, i1 immarg) #6


!llvm.module.flags = !{!0, !1, !2, !3}
!llvm.ident = !{!4}

!0 = !{i32 1, !"wchar_size", i32 4}
!1 = !{i32 7, !"PIC Level", i32 2}
!2 = !{i32 7, !"PIE Level", i32 2}
!3 = !{i32 7, !"uwtable", i32 1}
!4 = !{!"clang version 13.0.0"}
!5 = !{!6, !6, i64 0}
!6 = !{!"int", !7, i64 0}
!7 = !{!"omnipotent char", !8, i64 0}
!8 = !{!"Simple C++ TBAA"}
!9 = !{!7, !7, i64 0}
!10 = distinct !{!10, !11}
!11 = !{!"llvm.loop.mustprogress"}
!12 = distinct !{!12, !11}
!13 = distinct !{!13, !11}
!14 = distinct !{!14, !11}
